target datalayout = "e-m:e-p270:32:32-p271:32:32-p272:64:64-i64:64-i128:128-f80:128-n8:16:32:64-S128"
target triple = "x86_64-pc-linux-gnu"

%struct.TS_resp_ctx = type { ptr, ptr, ptr, ptr, ptr, ptr, ptr, ptr, ptr, ptr, ptr, i32, i32, ptr, ptr, ptr, ptr, ptr, ptr, ptr, ptr, ptr, ptr, ptr }

; Function Attrs: nounwind uwtable
define i32 @TS_RESP_CTX_set_certs(ptr noundef %0, ptr noundef %1) #0 {
  %3 = alloca ptr, align 8
  %4 = alloca ptr, align 8
  store ptr %0, ptr %3, align 8, !tbaa !10
  store ptr %1, ptr %4, align 8, !tbaa !59
  %5 = load ptr, ptr %3, align 8, !tbaa !10
  %6 = getelementptr inbounds nuw %struct.TS_resp_ctx, ptr %5, i32 0, i32 4
  %7 = load ptr, ptr %6, align 8, !tbaa !45
  call void @OSSL_STACK_OF_X509_free(ptr noundef %7)
  %8 = load ptr, ptr %3, align 8, !tbaa !10
  %9 = getelementptr inbounds nuw %struct.TS_resp_ctx, ptr %8, i32 0, i32 4
  store ptr null, ptr %9, align 8, !tbaa !45
  %10 = load ptr, ptr %4, align 8, !tbaa !59
  %11 = icmp eq ptr %10, null
  br i1 %11, label %18, label %12

12:                                               ; preds = %2
  %13 = load ptr, ptr %4, align 8, !tbaa !59
  %14 = call ptr @X509_chain_up_ref(ptr noundef %13)
  %15 = load ptr, ptr %3, align 8, !tbaa !10
  %16 = getelementptr inbounds nuw %struct.TS_resp_ctx, ptr %15, i32 0, i32 4
  store ptr %14, ptr %16, align 8, !tbaa !45
  %17 = icmp ne ptr %14, null
  br label %18

18:                                               ; preds = %12, %2
  %19 = phi i1 [ true, %2 ], [ %17, %12 ]
  %20 = zext i1 %19 to i32
  ret i32 %20
}