; Function Attrs: nounwind uwtable
define range(i32 0, 2) i32 @TS_RESP_CTX_set_certs(ptr noundef captures(none) %0, ptr noundef %1) local_unnamed_addr #0 {
  %3 = getelementptr inbounds nuw i8, ptr %0, i64 32
  %4 = load ptr, ptr %3, align 8, !tbaa !38
  tail call void @OSSL_STACK_OF_X509_free(ptr noundef %4) #9
  store ptr null, ptr %3, align 8, !tbaa !38
  %5 = icmp eq ptr %1, null
  br i1 %5, label %10, label %6

6:                                                ; preds = %2
  %7 = tail call ptr @X509_chain_up_ref(ptr noundef nonnull %1) #9
  store ptr %7, ptr %3, align 8, !tbaa !38
  %8 = icmp ne ptr %7, null
  %9 = zext i1 %8 to i32
  br label %10

10:                                               ; preds = %6, %2
  %11 = phi i32 [ 1, %2 ], [ %9, %6 ]
  ret i32 %11
}